target datalayout = "e-m:e-p270:32:32-p271:32:32-p272:64:64-i64:64-i128:128-f80:128-n8:16:32:64-S128"
target triple = "x86_64-pc-linux-gnu"

%struct.structure_factor = type { i32, double, double, double, double, ptr, i32, i32 }

@stderr = external global ptr, align 8
@.str.65 = private unnamed_addr constant [21 x i8] c"\0Awavelenght = %f nm\0A\00", align 1

; Function Attrs: mustprogress uwtable
define noundef ptr @_Z31compute_scattering_factor_tableP20gmx_structurefactorsP16structure_factor(ptr noundef %0, ptr noundef %1) #0 {
  %3 = alloca ptr, align 8
  %4 = alloca ptr, align 8
  %5 = alloca double, align 8
  %6 = alloca ptr, align 8
  %7 = alloca ptr, align 8
  store ptr %0, ptr %3, align 8
  store ptr %1, ptr %4, align 8
  store double 0x40935F5E353F7CEE, ptr %5, align 8
  %8 = load ptr, ptr %4, align 8
  store ptr %8, ptr %7, align 8
  %9 = load ptr, ptr %7, align 8
  %10 = getelementptr inbounds %struct.structure_factor, ptr %9, i32 0, i32 2
  %11 = load double, ptr %10, align 8
  %12 = fmul double 0x40B88B2F704A9409, %11
  %13 = load double, ptr %5, align 8
  %14 = fdiv double %12, %13
  %15 = load ptr, ptr %7, align 8
  %16 = getelementptr inbounds %struct.structure_factor, ptr %15, i32 0, i32 3
  store double %14, ptr %16, align 8
  %17 = load double, ptr %5, align 8
  %18 = load ptr, ptr %7, align 8
  %19 = getelementptr inbounds %struct.structure_factor, ptr %18, i32 0, i32 2
  %20 = load double, ptr %19, align 8
  %21 = fmul double 1.000000e+03, %20
  %22 = fdiv double %17, %21
  %23 = load ptr, ptr %7, align 8
  %24 = getelementptr inbounds %struct.structure_factor, ptr %23, i32 0, i32 1
  store double %22, ptr %24, align 8
  %25 = load ptr, ptr @stderr, align 8
  %26 = load ptr, ptr %7, align 8
  %27 = getelementptr inbounds %struct.structure_factor, ptr %26, i32 0, i32 1
  %28 = load double, ptr %27, align 8
  %29 = call i32 (ptr, ptr, ...) @fprintf(ptr noundef %25, ptr noundef @.str.65, double noundef %28) #9
  %30 = load ptr, ptr %3, align 8
  %31 = load ptr, ptr %7, align 8
  %32 = getelementptr inbounds %struct.structure_factor, ptr %31, i32 0, i32 3
  %33 = load double, ptr %32, align 8
  %34 = fptrunc double %33 to float
  %35 = load ptr, ptr %7, align 8
  %36 = getelementptr inbounds %struct.structure_factor, ptr %35, i32 0, i32 4
  %37 = load double, ptr %36, align 8
  %38 = fptrunc double %37 to float
  %39 = load ptr, ptr %7, align 8
  %40 = getelementptr inbounds %struct.structure_factor, ptr %39, i32 0, i32 1
  %41 = load double, ptr %40, align 8
  %42 = fptrunc double %41 to float
  %43 = load ptr, ptr %7, align 8
  %44 = getelementptr inbounds %struct.structure_factor, ptr %43, i32 0, i32 0
  %45 = load i32, ptr %44, align 8
  %46 = call noundef ptr @_Z26gmx_structurefactors_tableP20gmx_structurefactorsfffi(ptr noundef %30, float noundef %34, float noundef %38, float noundef %42, i32 noundef %45)
  store ptr %46, ptr %6, align 8
  %47 = load ptr, ptr %6, align 8
  ret ptr %47
}