; Function Attrs: mustprogress uwtable
define noundef ptr @_Z31compute_scattering_factor_tableP20gmx_structurefactorsP16structure_factor(ptr noundef %0, ptr nocapture noundef %1) local_unnamed_addr #0 {
  %3 = getelementptr inbounds i8, ptr %1, i64 16
  %4 = load double, ptr %3, align 8
  %5 = fmul double %4, 0x40B88B2F704A9409
  %6 = fdiv double %5, 0x40935F5E353F7CEE
  %7 = getelementptr inbounds i8, ptr %1, i64 24
  store double %6, ptr %7, align 8
  %8 = fmul double %4, 1.000000e+03
  %9 = fdiv double 0x40935F5E353F7CEE, %8
  %10 = getelementptr inbounds i8, ptr %1, i64 8
  store double %9, ptr %10, align 8
  %11 = load ptr, ptr @stderr, align 8
  %12 = tail call i32 (ptr, ptr, ...) @fprintf(ptr noundef %11, ptr noundef nonnull @.str.65, double noundef %9) #14
  %13 = load double, ptr %7, align 8
  %14 = fptrunc double %13 to float
  %15 = getelementptr inbounds i8, ptr %1, i64 32
  %16 = load double, ptr %15, align 8
  %17 = fptrunc double %16 to float
  %18 = load double, ptr %10, align 8
  %19 = fptrunc double %18 to float
  %20 = load i32, ptr %1, align 8
  %21 = tail call noundef ptr @_Z26gmx_structurefactors_tableP20gmx_structurefactorsfffi(ptr noundef %0, float noundef %14, float noundef %17, float noundef %19, i32 noundef %20)
  ret ptr %21
}